; Function Attrs: mustprogress uwtable
define dso_local void @_ZN5vcpkg9to_stringB5cxx11ENS_11BuildPolicyE(ptr dead_on_unwind noalias writable sret(%"class.std::__cxx11::basic_string") align 8 %0, i32 noundef %1) local_unnamed_addr #2 {
  %3 = alloca %"struct.vcpkg::LineInfo", align 8
  %4 = alloca %"struct.vcpkg::StringLiteral", align 8
  call void @llvm.lifetime.start.p0(i64 16, ptr nonnull %3)
  %5 = icmp ult i32 %1, 13
  br i1 %5, label %switch.lookup, label %6

6:                                                ; preds = %2
  store i32 223, ptr %3, align 8
  %7 = getelementptr inbounds i8, ptr %3, i64 8
  store ptr @.str, ptr %7, align 8
  call void @_ZN5vcpkg6Checks11unreachableERKNS_8LineInfoE(ptr noundef nonnull align 8 dereferenceable(16) %3) #24
  unreachable

switch.lookup:                                    ; preds = %2
  %8 = zext nneg i32 %1 to i64
  %switch.gep = getelementptr inbounds [13 x ptr], ptr @switch.table._ZN5vcpkg15read_build_infoERKNS_18ReadOnlyFilesystemERKNS_4PathE, i64 0, i64 %8
  %switch.load = load ptr, ptr %switch.gep, align 8
  %9 = zext nneg i32 %1 to i64
  %switch.gep1 = getelementptr inbounds [13 x i64], ptr @switch.table._ZN5vcpkg15read_build_infoERKNS_18ReadOnlyFilesystemERKNS_4PathE.51, i64 0, i64 %9
  %switch.load2 = load i64, ptr %switch.gep1, align 8
  call void @llvm.lifetime.end.p0(i64 16, ptr nonnull %3)
  store ptr %switch.load, ptr %4, align 8
  %10 = getelementptr inbounds i8, ptr %4, i64 8
  store i64 %switch.load2, ptr %10, align 8
  call void @_ZNK5vcpkg10StringView9to_stringB5cxx11Ev(ptr dead_on_unwind writable sret(%"class.std::__cxx11::basic_string") align 8 %0, ptr noundef nonnull align 8 dereferenceable(16) %4)
  ret void
}